target datalayout = "e-m:e-p270:32:32-p271:32:32-p272:64:64-i64:64-i128:128-f80:128-n8:16:32:64-S128"
target triple = "x86_64-pc-linux-gnu"

%struct._cmsAdaptationStateChunkType = type { double }
%struct._cmsContext_struct = type { ptr, ptr, [16 x ptr], %struct._cmsMemPluginChunkType }
%struct._cmsMemPluginChunkType = type { ptr, ptr, ptr, ptr, ptr, ptr }

@_cmsAllocAdaptationStateChunk.AdaptationStateChunk = internal global %struct._cmsAdaptationStateChunkType { double 1.000000e+00 }, align 8

; Function Attrs: nounwind uwtable
define hidden void @_cmsAllocAdaptationStateChunk(ptr noundef %0, ptr noundef %1) #0 {
  %3 = alloca ptr, align 8
  %4 = alloca ptr, align 8
  %5 = alloca ptr, align 8
  store ptr %0, ptr %3, align 8
  store ptr %1, ptr %4, align 8
  %6 = load ptr, ptr %4, align 8
  %7 = icmp ne ptr %6, null
  br i1 %7, label %8, label %13

8:                                                ; preds = %2
  %9 = load ptr, ptr %4, align 8
  %10 = getelementptr inbounds %struct._cmsContext_struct, ptr %9, i32 0, i32 2
  %11 = getelementptr inbounds [16 x ptr], ptr %10, i64 0, i64 3
  %12 = load ptr, ptr %11, align 8
  store ptr %12, ptr %5, align 8
  br label %14

13:                                               ; preds = %2
  store ptr @_cmsAllocAdaptationStateChunk.AdaptationStateChunk, ptr %5, align 8
  br label %14

14:                                               ; preds = %13, %8
  %15 = load ptr, ptr %3, align 8
  %16 = getelementptr inbounds %struct._cmsContext_struct, ptr %15, i32 0, i32 1
  %17 = load ptr, ptr %16, align 8
  %18 = load ptr, ptr %5, align 8
  %19 = call ptr @_cmsSubAllocDup(ptr noundef %17, ptr noundef %18, i32 noundef 8)
  %20 = load ptr, ptr %3, align 8
  %21 = getelementptr inbounds %struct._cmsContext_struct, ptr %20, i32 0, i32 2
  %22 = getelementptr inbounds [16 x ptr], ptr %21, i64 0, i64 3
  store ptr %19, ptr %22, align 8
  ret void
}